ccopy_reg
_reconstructor
p0
(c__main__
Slate
p1
c__builtin__
object
p2
Ntp3
Rp4
(dp5
S'last_change'
p6
S'Mon Jul 29 21:33:58 2013'
p7
sS'value'
p8
S'line 2'
p9
sS'history'
p10
(dp11
S'Mon Jul 29 21:33:58 2013'
p12
S'Line 1'
p13
ssb.